; Function Attrs: mustprogress uwtable
define dso_local noundef zeroext i1 @_ZN10cmListFile9ParseFileEPKcP11cmMessengerRK19cmListFileBacktrace(ptr noundef nonnull align 8 dereferenceable(24) %0, ptr noundef %1, ptr noundef %2, ptr nocapture noundef nonnull readonly align 8 dereferenceable(16) %3) local_unnamed_addr #3 align 2 personality ptr @__gxx_personality_v0 {
  %5 = alloca %"class.std::__cxx11::basic_string", align 8
  %6 = alloca %"class.std::allocator", align 1
  %7 = alloca %struct.cmListFileParser, align 8
  %8 = alloca %class.cmListFileBacktrace, align 8
  %9 = tail call noundef zeroext i1 @_ZN5cmsys11SystemTools10FileExistsEPKc(ptr noundef %1)
  br i1 %9, label %10, label %.critedge.thread

10:                                               ; preds = %4
  call void @_ZNSaIcEC1Ev(ptr noundef nonnull align 1 dereferenceable(1) %6) #17
  %11 = invoke noundef ptr @_ZNSt7__cxx1112basic_stringIcSt11char_traitsIcESaIcEE13_M_local_dataEv(ptr noundef nonnull align 8 dereferenceable(32) %5)
          to label %.noexc unwind label %21

.noexc:                                           ; preds = %10
  invoke void @_ZNSt7__cxx1112basic_stringIcSt11char_traitsIcESaIcEE12_Alloc_hiderC1EPcRKS3_(ptr noundef nonnull align 8 dereferenceable(8) %5, ptr noundef %11, ptr noundef nonnull align 1 dereferenceable(1) %6)
          to label %.noexc21 unwind label %21

.noexc21:                                         ; preds = %.noexc
  %12 = icmp eq ptr %1, null
  br i1 %12, label %13, label %17

13:                                               ; preds = %.noexc21
  invoke void @_ZSt19__throw_logic_errorPKc(ptr noundef nonnull @.str.40) #21
          to label %14 unwind label %15

14:                                               ; preds = %13
  unreachable

15:                                               ; preds = %17, %13
  %16 = landingpad { ptr, i32 }
          cleanup
  call void @_ZNSaIcED2Ev(ptr noundef nonnull align 1 dereferenceable(1) %5) #17
  br label %.body

17:                                               ; preds = %.noexc21
  %18 = call noundef i64 @strlen(ptr noundef nonnull dereferenceable(1) %1) #17
  %19 = getelementptr inbounds i8, ptr %1, i64 %18
  invoke void @_ZNSt7__cxx1112basic_stringIcSt11char_traitsIcESaIcEE12_M_constructIPKcEEvT_S8_St20forward_iterator_tag(ptr noundef nonnull align 8 dereferenceable(32) %5, ptr noundef nonnull %1, ptr noundef nonnull %19)
          to label %_ZNSt7__cxx1112basic_stringIcSt11char_traitsIcESaIcEEC2IS3_EEPKcRKS3_.exit unwind label %15

_ZNSt7__cxx1112basic_stringIcSt11char_traitsIcESaIcEEC2IS3_EEPKcRKS3_.exit: ; preds = %17
  %20 = invoke noundef zeroext i1 @_ZN5cmsys11SystemTools15FileIsDirectoryERKNSt7__cxx1112basic_stringIcSt11char_traitsIcESaIcEEE(ptr noundef nonnull align 8 dereferenceable(32) %5)
          to label %.critedge unwind label %23

.critedge:                                        ; preds = %_ZNSt7__cxx1112basic_stringIcSt11char_traitsIcESaIcEEC2IS3_EEPKcRKS3_.exit
  call void @_ZNSt7__cxx1112basic_stringIcSt11char_traitsIcESaIcEED1Ev(ptr noundef nonnull align 8 dereferenceable(32) %5) #17
  call void @_ZNSaIcED1Ev(ptr noundef nonnull align 1 dereferenceable(1) %6) #17
  br i1 %20, label %.critedge.thread, label %25

21:                                               ; preds = %.noexc, %10
  %22 = landingpad { ptr, i32 }
          cleanup
  br label %.body

23:                                               ; preds = %_ZNSt7__cxx1112basic_stringIcSt11char_traitsIcESaIcEEC2IS3_EEPKcRKS3_.exit
  %24 = landingpad { ptr, i32 }
          cleanup
  call void @_ZNSt7__cxx1112basic_stringIcSt11char_traitsIcESaIcEED1Ev(ptr noundef nonnull align 8 dereferenceable(32) %5) #17
  br label %.body

.body:                                            ; preds = %21, %15, %23
  %.pn = phi { ptr, i32 } [ %24, %23 ], [ %22, %21 ], [ %16, %15 ]
  call void @_ZNSaIcED1Ev(ptr noundef nonnull align 1 dereferenceable(1) %6) #17
  br label %53

25:                                               ; preds = %.critedge
  %26 = load ptr, ptr %3, align 8
  store ptr %26, ptr %8, align 8
  %27 = getelementptr inbounds i8, ptr %8, i64 8
  %28 = getelementptr inbounds i8, ptr %3, i64 8
  %29 = load ptr, ptr %28, align 8
  store ptr %29, ptr %27, align 8
  %.not.i.i.i.i.i = icmp eq ptr %29, null
  br i1 %.not.i.i.i.i.i, label %_ZN19cmListFileBacktraceC2ERKS_.exit, label %30

30:                                               ; preds = %25
  %31 = getelementptr inbounds i8, ptr %29, i64 8
  %32 = load i8, ptr @__libc_single_threaded, align 1
  %.not.i.i.i.i.i.i = icmp eq i8 %32, 0
  br i1 %.not.i.i.i.i.i.i, label %36, label %33

33:                                               ; preds = %30
  %34 = load i32, ptr %31, align 4
  %35 = add nsw i32 %34, 1
  store i32 %35, ptr %31, align 4
  br label %_ZN19cmListFileBacktraceC2ERKS_.exit

36:                                               ; preds = %30
  %37 = atomicrmw volatile add ptr %31, i32 1 acq_rel, align 4
  %.pre = load ptr, ptr %8, align 8
  %.pre26 = load ptr, ptr %27, align 8
  br label %_ZN19cmListFileBacktraceC2ERKS_.exit

_ZN19cmListFileBacktraceC2ERKS_.exit:             ; preds = %25, %33, %36
  %38 = phi ptr [ null, %25 ], [ %29, %33 ], [ %.pre26, %36 ]
  %39 = phi ptr [ %26, %25 ], [ %26, %33 ], [ %.pre, %36 ]
  store ptr %0, ptr %7, align 8
  %40 = getelementptr inbounds i8, ptr %7, i64 8
  store ptr %39, ptr %40, align 8
  %41 = getelementptr inbounds i8, ptr %7, i64 16
  store ptr null, ptr %27, align 8
  store ptr %38, ptr %41, align 8
  store ptr null, ptr %8, align 8
  %42 = getelementptr inbounds i8, ptr %7, i64 24
  store ptr %2, ptr %42, align 8
  %43 = getelementptr inbounds i8, ptr %7, i64 32
  store ptr null, ptr %43, align 8
  %44 = invoke ptr @cmListFileLexer_New()
          to label %_ZN19cmListFileBacktraceD2Ev.exit unwind label %.body22

.body22:                                          ; preds = %_ZN19cmListFileBacktraceC2ERKS_.exit
  %45 = landingpad { ptr, i32 }
          cleanup
  call void @_ZN19cmListFileBacktraceD2Ev(ptr noundef nonnull align 8 dereferenceable(16) %40) #17
  call void @_ZN19cmListFileBacktraceD2Ev(ptr noundef nonnull align 8 dereferenceable(16) %8) #17
  br label %53

_ZN19cmListFileBacktraceD2Ev.exit:                ; preds = %_ZN19cmListFileBacktraceC2ERKS_.exit
  %46 = getelementptr inbounds i8, ptr %7, i64 40
  store ptr %44, ptr %46, align 8
  %47 = getelementptr inbounds i8, ptr %7, i64 48
  call void @_ZNSt7__cxx1112basic_stringIcSt11char_traitsIcESaIcEEC1Ev(ptr noundef nonnull align 8 dereferenceable(32) %47) #17
  %48 = getelementptr inbounds i8, ptr %7, i64 96
  call void @llvm.memset.p0.i64(ptr noundef nonnull align 8 dereferenceable(24) %48, i8 0, i64 24, i1 false)
  %49 = invoke noundef zeroext i1 @_ZN16cmListFileParser9ParseFileEPKc(ptr noundef nonnull align 8 dereferenceable(124) %7, ptr noundef nonnull %1)
          to label %50 unwind label %51

50:                                               ; preds = %_ZN19cmListFileBacktraceD2Ev.exit
  call void @_ZN16cmListFileParserD2Ev(ptr noundef nonnull align 8 dereferenceable(124) %7) #17
  br label %.critedge.thread

51:                                               ; preds = %_ZN19cmListFileBacktraceD2Ev.exit
  %52 = landingpad { ptr, i32 }
          cleanup
  call void @_ZN16cmListFileParserD2Ev(ptr noundef nonnull align 8 dereferenceable(124) %7) #17
  br label %53

.critedge.thread:                                 ; preds = %4, %.critedge, %50
  %.017 = phi i1 [ %49, %50 ], [ false, %.critedge ], [ false, %4 ]
  ret i1 %.017

53:                                               ; preds = %.body, %51, %.body22
  %.pn19 = phi { ptr, i32 } [ %52, %51 ], [ %45, %.body22 ], [ %.pn, %.body ]
  resume { ptr, i32 } %.pn19
}